target datalayout = "e-m:e-p270:32:32-p271:32:32-p272:64:64-i64:64-i128:128-f80:128-n8:16:32:64-S128"
target triple = "x86_64-pc-linux-gnu"

%struct.code = type { i8, i8, i16 }
%struct.z_stream_s = type { ptr, i32, i64, ptr, i32, i64, ptr, ptr, ptr, ptr, ptr, i32, i64, i64, i32 }
%struct.inflate_state = type { i32, i32, i32, i32, i32, i32, i64, i64, ptr, i32, i32, i32, i32, ptr, i64, i32, i32, i32, i32, ptr, ptr, i32, i32, i32, i32, i32, i32, ptr, [320 x i16], [288 x i16], [1444 x %struct.code], i32, i32, i32 }

; Function Attrs: nounwind uwtable
define i32 @MOZ_Z_inflateResetKeep(ptr noundef %0) #0 {
  %2 = alloca i32, align 4
  %3 = alloca ptr, align 8
  %4 = alloca ptr, align 8
  %5 = alloca i32, align 4
  store ptr %0, ptr %3, align 8, !tbaa !3
  call void @llvm.lifetime.start.p0(i64 8, ptr %4) #4
  %6 = load ptr, ptr %3, align 8, !tbaa !3
  %7 = icmp eq ptr %6, null
  br i1 %7, label %13, label %8

8:                                                ; preds = %1
  %9 = load ptr, ptr %3, align 8, !tbaa !3
  %10 = getelementptr inbounds nuw %struct.z_stream_s, ptr %9, i32 0, i32 7
  %11 = load ptr, ptr %10, align 8, !tbaa !8
  %12 = icmp eq ptr %11, null
  br i1 %12, label %13, label %14

13:                                               ; preds = %8, %1
  store i32 -2, ptr %2, align 4
  store i32 1, ptr %5, align 4
  br label %66

14:                                               ; preds = %8
  %15 = load ptr, ptr %3, align 8, !tbaa !3
  %16 = getelementptr inbounds nuw %struct.z_stream_s, ptr %15, i32 0, i32 7
  %17 = load ptr, ptr %16, align 8, !tbaa !8
  store ptr %17, ptr %4, align 8, !tbaa !14
  %18 = load ptr, ptr %4, align 8, !tbaa !14
  %19 = getelementptr inbounds nuw %struct.inflate_state, ptr %18, i32 0, i32 7
  store i64 0, ptr %19, align 8, !tbaa !16
  %20 = load ptr, ptr %3, align 8, !tbaa !3
  %21 = getelementptr inbounds nuw %struct.z_stream_s, ptr %20, i32 0, i32 5
  store i64 0, ptr %21, align 8, !tbaa !19
  %22 = load ptr, ptr %3, align 8, !tbaa !3
  %23 = getelementptr inbounds nuw %struct.z_stream_s, ptr %22, i32 0, i32 2
  store i64 0, ptr %23, align 8, !tbaa !20
  %24 = load ptr, ptr %3, align 8, !tbaa !3
  %25 = getelementptr inbounds nuw %struct.z_stream_s, ptr %24, i32 0, i32 6
  store ptr null, ptr %25, align 8, !tbaa !21
  %26 = load ptr, ptr %4, align 8, !tbaa !14
  %27 = getelementptr inbounds nuw %struct.inflate_state, ptr %26, i32 0, i32 2
  %28 = load i32, ptr %27, align 8, !tbaa !22
  %29 = icmp ne i32 %28, 0
  br i1 %29, label %30, label %38

30:                                               ; preds = %14
  %31 = load ptr, ptr %4, align 8, !tbaa !14
  %32 = getelementptr inbounds nuw %struct.inflate_state, ptr %31, i32 0, i32 2
  %33 = load i32, ptr %32, align 8, !tbaa !22
  %34 = and i32 %33, 1
  %35 = sext i32 %34 to i64
  %36 = load ptr, ptr %3, align 8, !tbaa !3
  %37 = getelementptr inbounds nuw %struct.z_stream_s, ptr %36, i32 0, i32 12
  store i64 %35, ptr %37, align 8, !tbaa !23
  br label %38

38:                                               ; preds = %30, %14
  %39 = load ptr, ptr %4, align 8, !tbaa !14
  %40 = getelementptr inbounds nuw %struct.inflate_state, ptr %39, i32 0, i32 0
  store i32 0, ptr %40, align 8, !tbaa !24
  %41 = load ptr, ptr %4, align 8, !tbaa !14
  %42 = getelementptr inbounds nuw %struct.inflate_state, ptr %41, i32 0, i32 1
  store i32 0, ptr %42, align 4, !tbaa !25
  %43 = load ptr, ptr %4, align 8, !tbaa !14
  %44 = getelementptr inbounds nuw %struct.inflate_state, ptr %43, i32 0, i32 3
  store i32 0, ptr %44, align 4, !tbaa !26
  %45 = load ptr, ptr %4, align 8, !tbaa !14
  %46 = getelementptr inbounds nuw %struct.inflate_state, ptr %45, i32 0, i32 5
  store i32 32768, ptr %46, align 4, !tbaa !27
  %47 = load ptr, ptr %4, align 8, !tbaa !14
  %48 = getelementptr inbounds nuw %struct.inflate_state, ptr %47, i32 0, i32 8
  store ptr null, ptr %48, align 8, !tbaa !28
  %49 = load ptr, ptr %4, align 8, !tbaa !14
  %50 = getelementptr inbounds nuw %struct.inflate_state, ptr %49, i32 0, i32 14
  store i64 0, ptr %50, align 8, !tbaa !29
  %51 = load ptr, ptr %4, align 8, !tbaa !14
  %52 = getelementptr inbounds nuw %struct.inflate_state, ptr %51, i32 0, i32 15
  store i32 0, ptr %52, align 8, !tbaa !30
  %53 = load ptr, ptr %4, align 8, !tbaa !14
  %54 = getelementptr inbounds nuw %struct.inflate_state, ptr %53, i32 0, i32 30
  %55 = getelementptr inbounds [1444 x %struct.code], ptr %54, i64 0, i64 0
  %56 = load ptr, ptr %4, align 8, !tbaa !14
  %57 = getelementptr inbounds nuw %struct.inflate_state, ptr %56, i32 0, i32 27
  store ptr %55, ptr %57, align 8, !tbaa !31
  %58 = load ptr, ptr %4, align 8, !tbaa !14
  %59 = getelementptr inbounds nuw %struct.inflate_state, ptr %58, i32 0, i32 20
  store ptr %55, ptr %59, align 8, !tbaa !32
  %60 = load ptr, ptr %4, align 8, !tbaa !14
  %61 = getelementptr inbounds nuw %struct.inflate_state, ptr %60, i32 0, i32 19
  store ptr %55, ptr %61, align 8, !tbaa !33
  %62 = load ptr, ptr %4, align 8, !tbaa !14
  %63 = getelementptr inbounds nuw %struct.inflate_state, ptr %62, i32 0, i32 31
  store i32 1, ptr %63, align 8, !tbaa !34
  %64 = load ptr, ptr %4, align 8, !tbaa !14
  %65 = getelementptr inbounds nuw %struct.inflate_state, ptr %64, i32 0, i32 32
  store i32 -1, ptr %65, align 4, !tbaa !35
  store i32 0, ptr %2, align 4
  store i32 1, ptr %5, align 4
  br label %66

66:                                               ; preds = %38, %13
  call void @llvm.lifetime.end.p0(i64 8, ptr %4) #4
  %67 = load i32, ptr %2, align 4
  ret i32 %67
}

; Function Attrs: nounwind uwtable
define i32 @MOZ_Z_inflateReset(ptr noundef %0) #0 {
  %2 = alloca i32, align 4
  %3 = alloca ptr, align 8
  %4 = alloca ptr, align 8
  %5 = alloca i32, align 4
  store ptr %0, ptr %3, align 8, !tbaa !3
  call void @llvm.lifetime.start.p0(i64 8, ptr %4) #4
  %6 = load ptr, ptr %3, align 8, !tbaa !3
  %7 = icmp eq ptr %6, null
  br i1 %7, label %13, label %8

8:                                                ; preds = %1
  %9 = load ptr, ptr %3, align 8, !tbaa !3
  %10 = getelementptr inbounds nuw %struct.z_stream_s, ptr %9, i32 0, i32 7
  %11 = load ptr, ptr %10, align 8, !tbaa !8
  %12 = icmp eq ptr %11, null
  br i1 %12, label %13, label %14

13:                                               ; preds = %8, %1
  store i32 -2, ptr %2, align 4
  store i32 1, ptr %5, align 4
  br label %26

14:                                               ; preds = %8
  %15 = load ptr, ptr %3, align 8, !tbaa !3
  %16 = getelementptr inbounds nuw %struct.z_stream_s, ptr %15, i32 0, i32 7
  %17 = load ptr, ptr %16, align 8, !tbaa !8
  store ptr %17, ptr %4, align 8, !tbaa !14
  %18 = load ptr, ptr %4, align 8, !tbaa !14
  %19 = getelementptr inbounds nuw %struct.inflate_state, ptr %18, i32 0, i32 10
  store i32 0, ptr %19, align 4, !tbaa !36
  %20 = load ptr, ptr %4, align 8, !tbaa !14
  %21 = getelementptr inbounds nuw %struct.inflate_state, ptr %20, i32 0, i32 11
  store i32 0, ptr %21, align 8, !tbaa !37
  %22 = load ptr, ptr %4, align 8, !tbaa !14
  %23 = getelementptr inbounds nuw %struct.inflate_state, ptr %22, i32 0, i32 12
  store i32 0, ptr %23, align 4, !tbaa !38
  %24 = load ptr, ptr %3, align 8, !tbaa !3
  %25 = call i32 @MOZ_Z_inflateResetKeep(ptr noundef %24)
  store i32 %25, ptr %2, align 4
  store i32 1, ptr %5, align 4
  br label %26

26:                                               ; preds = %14, %13
  call void @llvm.lifetime.end.p0(i64 8, ptr %4) #4
  %27 = load i32, ptr %2, align 4
  ret i32 %27
}